; ModuleID = '30/655.c'
source_filename = "30/655.c"
target datalayout = "e-m:e-p270:32:32-p271:32:32-p272:64:64-i64:64-f80:128-n8:16:32:64-S128"
target triple = "x86_64-pc-linux-gnu"

@.str = private unnamed_addr constant [3 x i8] c"%d\00", align 1
@.str.1 = private unnamed_addr constant [4 x i8] c"%d\0A\00", align 1

; Function Attrs: noinline nounwind uwtable
define dso_local i32 @main() #0 {
  %1 = alloca i32, align 4
  %2 = alloca i32, align 4
  %3 = alloca i32, align 4
  %4 = alloca i32, align 4
  %5 = alloca i32, align 4
  %6 = alloca i32, align 4
  %7 = alloca i32, align 4
  %8 = alloca i32, align 4
  store i32 0, i32* %1, align 4
  store i32 0, i32* %8, align 4
  %9 = call i32 (i8*, ...) @__isoc99_scanf(i8* getelementptr inbounds ([3 x i8], [3 x i8]* @.str, i64 0, i64 0), i32* %2)
  store i32 1, i32* %3, align 4
  br label %10

10:                                               ; preds = %48, %0
  %11 = load i32, i32* %3, align 4
  %12 = load i32, i32* %2, align 4
  %13 = icmp sle i32 %11, %12
  br i1 %13, label %14, label %51

14:                                               ; preds = %10
  %15 = load i32, i32* %3, align 4
  %16 = srem i32 %15, 10
  store i32 %16, i32* %5, align 4
  %17 = load i32, i32* %3, align 4
  %18 = load i32, i32* %5, align 4
  %19 = sub nsw i32 %17, %18
  %20 = sdiv i32 %19, 10
  store i32 %20, i32* %4, align 4
  %21 = load i32, i32* %5, align 4
  %22 = icmp eq i32 %21, 0
  br i1 %22, label %23, label %24

23:                                               ; preds = %14
  store i32 1, i32* %5, align 4
  br label %24

24:                                               ; preds = %23, %14
  %25 = load i32, i32* %5, align 4
  %26 = srem i32 %25, 7
  store i32 %26, i32* %5, align 4
  %27 = load i32, i32* %4, align 4
  %28 = srem i32 %27, 7
  store i32 %28, i32* %4, align 4
  %29 = load i32, i32* %3, align 4
  %30 = icmp slt i32 %29, 10
  br i1 %30, label %31, label %32

31:                                               ; preds = %24
  store i32 1, i32* %4, align 4
  br label %32

32:                                               ; preds = %31, %24
  %33 = load i32, i32* %3, align 4
  %34 = srem i32 %33, 7
  store i32 %34, i32* %6, align 4
  %35 = load i32, i32* %4, align 4
  %36 = load i32, i32* %5, align 4
  %37 = mul nsw i32 %35, %36
  %38 = load i32, i32* %6, align 4
  %39 = mul nsw i32 %37, %38
  %40 = icmp eq i32 %39, 0
  br i1 %40, label %41, label %42

41:                                               ; preds = %32
  br label %48

42:                                               ; preds = %32
  %43 = load i32, i32* %3, align 4
  %44 = load i32, i32* %3, align 4
  %45 = mul nsw i32 %43, %44
  %46 = load i32, i32* %8, align 4
  %47 = add nsw i32 %46, %45
  store i32 %47, i32* %8, align 4
  br label %48

48:                                               ; preds = %42, %41
  %49 = load i32, i32* %3, align 4
  %50 = add nsw i32 %49, 1
  store i32 %50, i32* %3, align 4
  br label %10

51:                                               ; preds = %10
  %52 = load i32, i32* %8, align 4
  %53 = call i32 (i8*, ...) @printf(i8* getelementptr inbounds ([4 x i8], [4 x i8]* @.str.1, i64 0, i64 0), i32 %52)
  ret i32 0
}

declare dso_local i32 @__isoc99_scanf(i8*, ...) #1

declare dso_local i32 @printf(i8*, ...) #1


!llvm.module.flags = !{!0}
!llvm.ident = !{!1}

!0 = !{i32 1, !"wchar_size", i32 4}
!1 = !{!"clang version 10.0.0-4ubuntu1 "}
